; Function Attrs: mustprogress uwtable
define internal fastcc noundef ptr @_ZN4leanL30lean_expr_instantiate_rev_coreEP11lean_objectmPS1_(ptr noundef %0, i64 noundef %1, ptr noundef %2) unnamed_addr #0 personality ptr @__gxx_personality_v0 {
  %4 = alloca ptr, align 8
  %5 = alloca %"class.lean::expr", align 8
  %6 = alloca %"class.std::function", align 8
  store ptr %0, ptr %4, align 8, !tbaa !23
  %7 = call noundef i32 @_ZN4lean20get_loose_bvar_rangeERKNS_4exprE(ptr noundef nonnull align 8 dereferenceable(8) %4)
  %.not = icmp eq i32 %7, 0
  br i1 %.not, label %8, label %18

8:                                                ; preds = %3
  %9 = load ptr, ptr %4, align 8, !tbaa !23
  %10 = ptrtoint ptr %9 to i64
  %11 = and i64 %10, 1
  %.not12 = icmp eq i64 %11, 0
  br i1 %.not12, label %12, label %_ZL8lean_incP11lean_object.exit

12:                                               ; preds = %8
  %.val.i = load i32, ptr %9, align 4, !tbaa !8
  %13 = icmp sgt i32 %.val.i, 0
  br i1 %13, label %14, label %16, !prof !11

14:                                               ; preds = %12
  %15 = add nuw nsw i32 %.val.i, 1
  store i32 %15, ptr %9, align 4, !tbaa !8
  br label %_ZL8lean_incP11lean_object.exit

16:                                               ; preds = %12
  %.not.i = icmp eq i32 %.val.i, 0
  br i1 %.not.i, label %_ZL8lean_incP11lean_object.exit, label %17

17:                                               ; preds = %16
  call void @lean_inc_ref_cold(ptr noundef nonnull %9)
  %.pre = load ptr, ptr %4, align 8, !tbaa !23
  br label %_ZL8lean_incP11lean_object.exit

18:                                               ; preds = %3
  call void @llvm.lifetime.start.p0(i64 8, ptr nonnull %5) #12
  call void @llvm.lifetime.start.p0(i64 32, ptr nonnull %6) #12
  %19 = getelementptr inbounds nuw i8, ptr %6, i64 16
  %20 = getelementptr inbounds nuw i8, ptr %6, i64 24
  store i64 %1, ptr %6, align 8, !tbaa !24
  %.sroa.5.0..sroa_idx = getelementptr inbounds nuw i8, ptr %6, i64 8
  store ptr %2, ptr %.sroa.5.0..sroa_idx, align 8, !tbaa !25
  store ptr @"_ZNSt17_Function_handlerIFN4lean8optionalINS0_4exprEEERKS2_jEZNS0_L30lean_expr_instantiate_rev_coreEP11lean_objectmPS8_E3$_0E9_M_invokeERKSt9_Any_dataS5_Oj", ptr %20, align 8, !tbaa !15
  store ptr @"_ZNSt17_Function_handlerIFN4lean8optionalINS0_4exprEEERKS2_jEZNS0_L30lean_expr_instantiate_rev_coreEP11lean_objectmPS8_E3$_0E10_M_managerERSt9_Any_dataRKSC_St18_Manager_operation", ptr %19, align 8, !tbaa !18
  invoke void @_ZN4lean7replaceERKNS_4exprERKSt8functionIFNS_8optionalIS0_EES2_jEEb(ptr dead_on_unwind nonnull writable sret(%"class.lean::expr") align 8 %5, ptr noundef nonnull align 8 dereferenceable(8) %4, ptr noundef nonnull align 8 dereferenceable(32) %6, i1 noundef zeroext true)
          to label %21 unwind label %29

21:                                               ; preds = %18
  %22 = load ptr, ptr %19, align 8, !tbaa !18
  %.not.i9 = icmp eq ptr %22, null
  br i1 %.not.i9, label %_ZN4lean10object_refD2Ev.exit, label %23

23:                                               ; preds = %21
  %24 = invoke noundef zeroext i1 %22(ptr noundef nonnull align 8 dereferenceable(32) %6, ptr noundef nonnull align 8 dereferenceable(32) %6, i32 noundef 3)
          to label %_ZN4lean10object_refD2Ev.exit unwind label %25

25:                                               ; preds = %23
  %26 = landingpad { ptr, i32 }
          catch ptr null
  %27 = extractvalue { ptr, i32 } %26, 0
  call void @__clang_call_terminate(ptr %27) #13
  unreachable

_ZN4lean10object_refD2Ev.exit:                    ; preds = %21, %23
  call void @llvm.lifetime.end.p0(i64 32, ptr nonnull %6) #12
  %28 = load ptr, ptr %5, align 8, !tbaa !3
  call void @llvm.lifetime.end.p0(i64 8, ptr nonnull %5) #12
  br label %_ZL8lean_incP11lean_object.exit

29:                                               ; preds = %18
  %30 = landingpad { ptr, i32 }
          cleanup
  %31 = load ptr, ptr %19, align 8, !tbaa !18
  %.not.i10 = icmp eq ptr %31, null
  br i1 %.not.i10, label %_ZNSt14_Function_baseD2Ev.exit11, label %32

32:                                               ; preds = %29
  %33 = invoke noundef zeroext i1 %31(ptr noundef nonnull align 8 dereferenceable(32) %6, ptr noundef nonnull align 8 dereferenceable(32) %6, i32 noundef 3)
          to label %_ZNSt14_Function_baseD2Ev.exit11 unwind label %34

34:                                               ; preds = %32
  %35 = landingpad { ptr, i32 }
          catch ptr null
  %36 = extractvalue { ptr, i32 } %35, 0
  call void @__clang_call_terminate(ptr %36) #13
  unreachable

_ZNSt14_Function_baseD2Ev.exit11:                 ; preds = %29, %32
  call void @llvm.lifetime.end.p0(i64 32, ptr nonnull %6) #12
  call void @llvm.lifetime.end.p0(i64 8, ptr nonnull %5) #12
  resume { ptr, i32 } %30

_ZL8lean_incP11lean_object.exit:                  ; preds = %8, %14, %16, %17, %_ZN4lean10object_refD2Ev.exit
  %.07 = phi ptr [ %28, %_ZN4lean10object_refD2Ev.exit ], [ %.pre, %17 ], [ %9, %16 ], [ %9, %14 ], [ %9, %8 ]
  ret ptr %.07
}